target datalayout = "e-m:e-p270:32:32-p271:32:32-p272:64:64-i64:64-i128:128-f80:128-n8:16:32:64-S128"
target triple = "x86_64-pc-linux-gnu"

%"class.std::__cxx11::basic_string" = type { %"struct.std::__cxx11::basic_string<char>::_Alloc_hider", i64, %union.anon }
%"struct.std::__cxx11::basic_string<char>::_Alloc_hider" = type { ptr }
%union.anon = type { i64, [8 x i8] }
%"class.std::allocator" = type { i8 }
%"class.std::filesystem::__cxx11::path" = type { %"class.std::__cxx11::basic_string", %"struct.std::filesystem::__cxx11::path::_List" }
%"struct.std::filesystem::__cxx11::path::_List" = type { %"class.std::unique_ptr.72" }
%"class.std::unique_ptr.72" = type { %"struct.std::__uniq_ptr_data.73" }
%"struct.std::__uniq_ptr_data.73" = type { %"class.std::__uniq_ptr_impl.74" }
%"class.std::__uniq_ptr_impl.74" = type { %"class.std::tuple.75" }
%"class.std::tuple.75" = type { %"struct.std::_Tuple_impl.76" }
%"struct.std::_Tuple_impl.76" = type { %"struct.std::_Head_base.79" }
%"struct.std::_Head_base.79" = type { ptr }

@.str.10 = private unnamed_addr constant [130 x i8] c"generated/home/dtcxzyw/WorkSpace/Projects/compilers/llvm-opt-benchmark/bench/gromacs/gromacs/src/gromacs/mdlib/calc_verletbuf.cpp\00", align 1
@.str.16 = private unnamed_addr constant [7 x i8] c"incons\00", align 1
@.str.51 = private unnamed_addr constant [50 x i8] c"surface_frac called with unsupported cluster_size\00", align 1

; Function Attrs: mustprogress nounwind uwtable
define linkonce_odr void @_ZNSt15__new_allocatorIcE10deallocateEPcm(ptr noundef nonnull align 1 dereferenceable(1) %0, ptr noundef %1, i64 noundef %2) #2 comdat align 2 {
  %4 = alloca ptr, align 8
  %5 = alloca ptr, align 8
  %6 = alloca i64, align 8
  store ptr %0, ptr %4, align 8, !tbaa !13
  store ptr %1, ptr %5, align 8, !tbaa !11
  store i64 %2, ptr %6, align 8, !tbaa !21
  %7 = load ptr, ptr %5, align 8, !tbaa !11
  %8 = load i64, ptr %6, align 8, !tbaa !21
  %9 = mul i64 %8, 1
  call void @_ZdlPvm(ptr noundef %7, i64 noundef %9) #23
  ret void
}

; Function Attrs: mustprogress nounwind uwtable
define linkonce_odr noundef ptr @_ZNSt19__ptr_traits_ptr_toIPKcS0_Lb0EE10pointer_toERS0_(ptr noundef nonnull align 1 dereferenceable(1) %0) #2 comdat align 2 {
  %2 = alloca ptr, align 8
  store ptr %0, ptr %2, align 8, !tbaa !11
  %3 = load ptr, ptr %2, align 8, !tbaa !11
  ret ptr %3
}

; Function Attrs: mustprogress uwtable
define linkonce_odr void @_ZNSt16allocator_traitsISaIcEE10deallocateERS0_Pcm(ptr noundef nonnull align 1 dereferenceable(1) %0, ptr noundef %1, i64 noundef %2) #3 comdat align 2 {
  %4 = alloca ptr, align 8
  %5 = alloca ptr, align 8
  %6 = alloca i64, align 8
  store ptr %0, ptr %4, align 8, !tbaa !4
  store ptr %1, ptr %5, align 8, !tbaa !11
  store i64 %2, ptr %6, align 8, !tbaa !21
  %7 = load ptr, ptr %4, align 8, !tbaa !4
  %8 = load ptr, ptr %5, align 8, !tbaa !11
  %9 = load i64, ptr %6, align 8, !tbaa !21
  call void @_ZNSt15__new_allocatorIcE10deallocateEPcm(ptr noundef nonnull align 1 dereferenceable(1) %7, ptr noundef %8, i64 noundef %9)
  ret void
}

; Function Attrs: mustprogress nounwind uwtable
define available_externally noundef nonnull align 1 dereferenceable(1) ptr @_ZNSt7__cxx1112basic_stringIcSt11char_traitsIcESaIcEE16_M_get_allocatorEv(ptr noundef nonnull align 8 dereferenceable(32) %0) #2 align 2 {
  %2 = alloca ptr, align 8
  store ptr %0, ptr %2, align 8, !tbaa !9
  %3 = load ptr, ptr %2, align 8
  %4 = getelementptr inbounds nuw %"class.std::__cxx11::basic_string", ptr %3, i32 0, i32 0
  ret ptr %4
}

; Function Attrs: mustprogress nounwind uwtable
define available_externally noundef ptr @_ZNKSt7__cxx1112basic_stringIcSt11char_traitsIcESaIcEE13_M_local_dataEv(ptr noundef nonnull align 8 dereferenceable(32) %0) #2 align 2 {
  %2 = alloca ptr, align 8
  store ptr %0, ptr %2, align 8, !tbaa !9
  %3 = load ptr, ptr %2, align 8
  %4 = getelementptr inbounds nuw %"class.std::__cxx11::basic_string", ptr %3, i32 0, i32 2
  %5 = getelementptr inbounds [16 x i8], ptr %4, i64 0, i64 0
  %6 = call noundef ptr @_ZNSt19__ptr_traits_ptr_toIPKcS0_Lb0EE10pointer_toERS0_(ptr noundef nonnull align 1 dereferenceable(1) %5) #5
  ret ptr %6
}

; Function Attrs: mustprogress nounwind uwtable
define available_externally noundef ptr @_ZNKSt7__cxx1112basic_stringIcSt11char_traitsIcESaIcEE7_M_dataEv(ptr noundef nonnull align 8 dereferenceable(32) %0) #2 align 2 {
  %2 = alloca ptr, align 8
  store ptr %0, ptr %2, align 8, !tbaa !9
  %3 = load ptr, ptr %2, align 8
  %4 = getelementptr inbounds nuw %"class.std::__cxx11::basic_string", ptr %3, i32 0, i32 0
  %5 = getelementptr inbounds nuw %"struct.std::__cxx11::basic_string<char>::_Alloc_hider", ptr %4, i32 0, i32 0
  %6 = load ptr, ptr %5, align 8, !tbaa !25
  ret ptr %6
}

; Function Attrs: mustprogress nounwind uwtable
define available_externally void @_ZNSt7__cxx1112basic_stringIcSt11char_traitsIcESaIcEE10_M_destroyEm(ptr noundef nonnull align 8 dereferenceable(32) %0, i64 noundef %1) #2 align 2 personality ptr @__gxx_personality_v0 {
  %3 = alloca ptr, align 8
  %4 = alloca i64, align 8
  store ptr %0, ptr %3, align 8, !tbaa !9
  store i64 %1, ptr %4, align 8, !tbaa !21
  %5 = load ptr, ptr %3, align 8
  %6 = invoke noundef nonnull align 1 dereferenceable(1) ptr @_ZNSt7__cxx1112basic_stringIcSt11char_traitsIcESaIcEE16_M_get_allocatorEv(ptr noundef nonnull align 8 dereferenceable(32) %5)
          to label %7 unwind label %12

7:                                                ; preds = %2
  %8 = call noundef ptr @_ZNKSt7__cxx1112basic_stringIcSt11char_traitsIcESaIcEE7_M_dataEv(ptr noundef nonnull align 8 dereferenceable(32) %5)
  %9 = load i64, ptr %4, align 8, !tbaa !21
  %10 = add i64 %9, 1
  invoke void @_ZNSt16allocator_traitsISaIcEE10deallocateERS0_Pcm(ptr noundef nonnull align 1 dereferenceable(1) %6, ptr noundef %8, i64 noundef %10)
          to label %11 unwind label %12

11:                                               ; preds = %7
  ret void

12:                                               ; preds = %7, %2
  %13 = landingpad { ptr, i32 }
          catch ptr null
  %14 = extractvalue { ptr, i32 } %13, 0
  call void @__clang_call_terminate(ptr %14) #22
  unreachable
}

; Function Attrs: mustprogress uwtable
define available_externally noundef zeroext i1 @_ZNKSt7__cxx1112basic_stringIcSt11char_traitsIcESaIcEE11_M_is_localEv(ptr noundef nonnull align 8 dereferenceable(32) %0) #3 align 2 {
  %2 = alloca i1, align 1
  %3 = alloca ptr, align 8
  store ptr %0, ptr %3, align 8, !tbaa !9
  %4 = load ptr, ptr %3, align 8
  %5 = call noundef ptr @_ZNKSt7__cxx1112basic_stringIcSt11char_traitsIcESaIcEE7_M_dataEv(ptr noundef nonnull align 8 dereferenceable(32) %4)
  %6 = call noundef ptr @_ZNKSt7__cxx1112basic_stringIcSt11char_traitsIcESaIcEE13_M_local_dataEv(ptr noundef nonnull align 8 dereferenceable(32) %4)
  %7 = icmp eq ptr %5, %6
  br i1 %7, label %8, label %14

8:                                                ; preds = %1
  %9 = getelementptr inbounds nuw %"class.std::__cxx11::basic_string", ptr %4, i32 0, i32 1
  %10 = load i64, ptr %9, align 8, !tbaa !33
  %11 = icmp ugt i64 %10, 15
  br i1 %11, label %12, label %13

12:                                               ; preds = %8
  unreachable

13:                                               ; preds = %8
  store i1 true, ptr %2, align 1
  br label %15

14:                                               ; preds = %1
  store i1 false, ptr %2, align 1
  br label %15

15:                                               ; preds = %14, %13
  %16 = load i1, ptr %2, align 1
  ret i1 %16
}

; Function Attrs: noinline noreturn nounwind uwtable
define linkonce_odr hidden void @__clang_call_terminate(ptr noundef %0) #11 comdat {
  %2 = call ptr @__cxa_begin_catch(ptr %0) #5
  call void @_ZSt9terminatev() #22
  unreachable
}

; Function Attrs: mustprogress uwtable
define available_externally void @_ZNSt7__cxx1112basic_stringIcSt11char_traitsIcESaIcEE10_M_disposeEv(ptr noundef nonnull align 8 dereferenceable(32) %0) #3 align 2 {
  %2 = alloca ptr, align 8
  store ptr %0, ptr %2, align 8, !tbaa !9
  %3 = load ptr, ptr %2, align 8
  %4 = call noundef zeroext i1 @_ZNKSt7__cxx1112basic_stringIcSt11char_traitsIcESaIcEE11_M_is_localEv(ptr noundef nonnull align 8 dereferenceable(32) %3)
  br i1 %4, label %8, label %5

5:                                                ; preds = %1
  %6 = getelementptr inbounds nuw %"class.std::__cxx11::basic_string", ptr %3, i32 0, i32 2
  %7 = load i64, ptr %6, align 8, !tbaa !27
  call void @_ZNSt7__cxx1112basic_stringIcSt11char_traitsIcESaIcEE10_M_destroyEm(ptr noundef nonnull align 8 dereferenceable(32) %3, i64 noundef %7) #5
  br label %8

8:                                                ; preds = %5, %1
  ret void
}

; Function Attrs: mustprogress nounwind uwtable
define linkonce_odr void @_ZNSt15__new_allocatorIcEC2Ev(ptr noundef nonnull align 1 dereferenceable(1) %0) unnamed_addr #2 comdat align 2 {
  %2 = alloca ptr, align 8
  store ptr %0, ptr %2, align 8, !tbaa !13
  ret void
}

; Function Attrs: mustprogress nounwind uwtable
define linkonce_odr void @_ZNSt15__new_allocatorIcED2Ev(ptr noundef nonnull align 1 dereferenceable(1) %0) unnamed_addr #2 comdat align 2 {
  %2 = alloca ptr, align 8
  store ptr %0, ptr %2, align 8, !tbaa !13
  ret void
}

; Function Attrs: mustprogress nounwind uwtable
define available_externally void @_ZNSt7__cxx1112basic_stringIcSt11char_traitsIcESaIcEED2Ev(ptr noundef nonnull align 8 dereferenceable(32) %0) unnamed_addr #2 align 2 personality ptr @__gxx_personality_v0 {
  %2 = alloca ptr, align 8
  store ptr %0, ptr %2, align 8, !tbaa !9
  %3 = load ptr, ptr %2, align 8
  invoke void @_ZNSt7__cxx1112basic_stringIcSt11char_traitsIcESaIcEE10_M_disposeEv(ptr noundef nonnull align 8 dereferenceable(32) %3)
          to label %4 unwind label %6

4:                                                ; preds = %1
  %5 = getelementptr inbounds nuw %"class.std::__cxx11::basic_string", ptr %3, i32 0, i32 0
  call void @_ZNSt15__new_allocatorIcED2Ev(ptr noundef nonnull align 8 dereferenceable(8) %5) #5
  ret void

6:                                                ; preds = %1
  %7 = landingpad { ptr, i32 }
          catch ptr null
  %8 = extractvalue { ptr, i32 } %7, 0
  call void @__clang_call_terminate(ptr %8) #22
  unreachable
}

; Function Attrs: mustprogress nounwind uwtable
define available_externally void @_ZNSaIcEC2Ev(ptr noundef nonnull align 1 dereferenceable(1) %0) unnamed_addr #2 align 2 {
  %2 = alloca ptr, align 8
  store ptr %0, ptr %2, align 8, !tbaa !4
  %3 = load ptr, ptr %2, align 8
  call void @_ZNSt15__new_allocatorIcEC2Ev(ptr noundef nonnull align 1 dereferenceable(1) %3) #5
  ret void
}

; Function Attrs: inlinehint mustprogress nounwind uwtable
define linkonce_odr noundef double @_ZSt4sqrtIiEN9__gnu_cxx11__enable_ifIXsr12__is_integerIT_EE7__valueEdE6__typeES2_(i32 noundef %0) #4 comdat {
  %2 = alloca i32, align 4
  store i32 %0, ptr %2, align 4, !tbaa !57
  %3 = load i32, ptr %2, align 4, !tbaa !57
  %4 = sitofp i32 %3 to double
  %5 = call double @sqrt(double noundef %4) #5, !tbaa !57
  ret double %5
}

; Function Attrs: mustprogress uwtable
define internal noundef float @_ZL12surface_fraciff(i32 noundef %0, float noundef %1, float noundef %2) #3 personality ptr @__gxx_personality_v0 {
  %4 = alloca float, align 4
  %5 = alloca i32, align 4
  %6 = alloca float, align 4
  %7 = alloca float, align 4
  %8 = alloca float, align 4
  %9 = alloca float, align 4
  %10 = alloca i32, align 4
  %11 = alloca %"class.std::__cxx11::basic_string", align 8
  %12 = alloca %"class.std::allocator", align 1
  %13 = alloca ptr, align 8
  %14 = alloca i32, align 4
  %15 = alloca %"class.std::filesystem::__cxx11::path", align 8
  store i32 %0, ptr %5, align 4, !tbaa !57
  store float %1, ptr %6, align 4, !tbaa !44
  store float %2, ptr %7, align 4, !tbaa !44
  call void @llvm.lifetime.start.p0(i64 4, ptr %8) #5
  call void @llvm.lifetime.start.p0(i64 4, ptr %9) #5
  %16 = load float, ptr %7, align 4, !tbaa !44
  %17 = fpext float %16 to double
  %18 = load float, ptr %6, align 4, !tbaa !44
  %19 = fpext float %18 to double
  %20 = fmul double 5.000000e-01, %19
  %21 = fcmp olt double %17, %20
  br i1 %21, label %22, label %23

22:                                               ; preds = %3
  store float 1.000000e+00, ptr %4, align 4
  store i32 1, ptr %10, align 4
  br label %115

23:                                               ; preds = %3
  %24 = load float, ptr %6, align 4, !tbaa !44
  %25 = fpext float %24 to double
  %26 = fmul double 5.000000e-01, %25
  %27 = load float, ptr %7, align 4, !tbaa !44
  %28 = fpext float %27 to double
  %29 = fdiv double %26, %28
  %30 = fptrunc double %29 to float
  store float %30, ptr %8, align 4, !tbaa !44
  %31 = load i32, ptr %5, align 4, !tbaa !57
  switch i32 %31, label %92 [
    i32 1, label %32
    i32 2, label %33
    i32 4, label %38
  ]

32:                                               ; preds = %23
  store float 1.000000e+00, ptr %9, align 4, !tbaa !44
  br label %110

33:                                               ; preds = %23
  %34 = load float, ptr %8, align 4, !tbaa !44
  %35 = fpext float %34 to double
  %36 = fadd double 1.000000e+00, %35
  %37 = fptrunc double %36 to float
  store float %37, ptr %9, align 4, !tbaa !44
  br label %110

38:                                               ; preds = %23
  %39 = call noundef double @_ZSt4sqrtIiEN9__gnu_cxx11__enable_ifIXsr12__is_integerIT_EE7__valueEdE6__typeES2_(i32 noundef 3)
  %40 = fdiv double 1.000000e+00, %39
  %41 = call double @acos(double noundef %40) #5, !tbaa !57
  %42 = fmul double 6.000000e+00, %41
  %43 = load float, ptr %8, align 4, !tbaa !44
  %44 = fpext float %43 to double
  %45 = call noundef double @_ZSt4sqrtIiEN9__gnu_cxx11__enable_ifIXsr12__is_integerIT_EE7__valueEdE6__typeES2_(i32 noundef 3)
  %46 = load float, ptr %8, align 4, !tbaa !44
  %47 = fpext float %46 to double
  %48 = fmul double %45, %47
  %49 = load float, ptr %8, align 4, !tbaa !44
  %50 = fpext float %49 to double
  %51 = fmul double %48, %50
  %52 = load float, ptr %8, align 4, !tbaa !44
  %53 = fpext float %52 to double
  %54 = fmul double 0x3FD1C71C71C71C72, %53
  %55 = load float, ptr %8, align 4, !tbaa !44
  %56 = fpext float %55 to double
  %57 = call double @llvm.fmuladd.f64(double %54, double %56, double 1.000000e+00)
  %58 = load float, ptr %8, align 4, !tbaa !44
  %59 = fpext float %58 to double
  %60 = fmul double 0x3FC3E93E93E93E94, %59
  %61 = load float, ptr %8, align 4, !tbaa !44
  %62 = fpext float %61 to double
  %63 = fmul double %60, %62
  %64 = load float, ptr %8, align 4, !tbaa !44
  %65 = fpext float %64 to double
  %66 = fmul double %63, %65
  %67 = load float, ptr %8, align 4, !tbaa !44
  %68 = fpext float %67 to double
  %69 = call double @llvm.fmuladd.f64(double %66, double %68, double %57)
  %70 = load float, ptr %8, align 4, !tbaa !44
  %71 = fpext float %70 to double
  %72 = fmul double 0x3FBC1B1706C5C1B1, %71
  %73 = load float, ptr %8, align 4, !tbaa !44
  %74 = fpext float %73 to double
  %75 = fmul double %72, %74
  %76 = load float, ptr %8, align 4, !tbaa !44
  %77 = fpext float %76 to double
  %78 = fmul double %75, %77
  %79 = load float, ptr %8, align 4, !tbaa !44
  %80 = fpext float %79 to double
  %81 = fmul double %78, %80
  %82 = load float, ptr %8, align 4, !tbaa !44
  %83 = fpext float %82 to double
  %84 = fmul double %81, %83
  %85 = load float, ptr %8, align 4, !tbaa !44
  %86 = fpext float %85 to double
  %87 = call double @llvm.fmuladd.f64(double %84, double %86, double %69)
  %88 = fmul double %51, %87
  %89 = call double @llvm.fmuladd.f64(double %42, double %44, double %88)
  %90 = call double @llvm.fmuladd.f64(double 0x3FD45F306DC9C883, double %89, double 1.000000e+00)
  %91 = fptrunc double %90 to float
  store float %91, ptr %9, align 4, !tbaa !44
  br label %110

92:                                               ; preds = %23
  call void @llvm.lifetime.start.p0(i64 32, ptr %11) #5
  call void @llvm.lifetime.start.p0(i64 1, ptr %12) #5
  call void @_ZNSaIcEC2Ev(ptr noundef nonnull align 1 dereferenceable(1) %12) #5
  invoke void @_ZNSt7__cxx1112basic_stringIcSt11char_traitsIcESaIcEEC2IS3_EEPKcRKS3_(ptr noundef nonnull align 8 dereferenceable(32) %11, ptr noundef @.str.51, ptr noundef nonnull align 1 dereferenceable(1) %12)
          to label %93 unwind label %96

93:                                               ; preds = %92
  call void @llvm.lifetime.start.p0(i64 40, ptr %15) #5
  invoke void @_ZNSt10filesystem7__cxx114pathC2IA130_cS1_EERKT_NS1_6formatE(ptr noundef nonnull align 8 dereferenceable(40) %15, ptr noundef nonnull align 1 dereferenceable(130) @.str.10, i8 noundef zeroext 2)
          to label %94 unwind label %100

94:                                               ; preds = %93
  invoke void @_Z18gmx_error_functionPKcRKNSt7__cxx1112basic_stringIcSt11char_traitsIcESaIcEEERKNSt10filesystem7__cxx114pathEi(ptr noundef @.str.16, ptr noundef nonnull align 8 dereferenceable(32) %11, ptr noundef nonnull align 8 dereferenceable(40) %15, i32 noundef 924) #21
          to label %95 unwind label %104

95:                                               ; preds = %94
  unreachable

96:                                               ; preds = %92
  %97 = landingpad { ptr, i32 }
          cleanup
  %98 = extractvalue { ptr, i32 } %97, 0
  store ptr %98, ptr %13, align 8
  %99 = extractvalue { ptr, i32 } %97, 1
  store i32 %99, ptr %14, align 4
  br label %109

100:                                              ; preds = %93
  %101 = landingpad { ptr, i32 }
          cleanup
  %102 = extractvalue { ptr, i32 } %101, 0
  store ptr %102, ptr %13, align 8
  %103 = extractvalue { ptr, i32 } %101, 1
  store i32 %103, ptr %14, align 4
  br label %108

104:                                              ; preds = %94
  %105 = landingpad { ptr, i32 }
          cleanup
  %106 = extractvalue { ptr, i32 } %105, 0
  store ptr %106, ptr %13, align 8
  %107 = extractvalue { ptr, i32 } %105, 1
  store i32 %107, ptr %14, align 4
  call void @_ZNSt10filesystem7__cxx114pathD2Ev(ptr noundef nonnull align 8 dereferenceable(40) %15) #5
  br label %108

108:                                              ; preds = %104, %100
  call void @llvm.lifetime.end.p0(i64 40, ptr %15) #5
  call void @_ZNSt7__cxx1112basic_stringIcSt11char_traitsIcESaIcEED2Ev(ptr noundef nonnull align 8 dereferenceable(32) %11) #5
  br label %109

109:                                              ; preds = %108, %96
  call void @_ZNSt15__new_allocatorIcED2Ev(ptr noundef nonnull align 1 dereferenceable(1) %12) #5
  call void @llvm.lifetime.end.p0(i64 1, ptr %12) #5
  call void @llvm.lifetime.end.p0(i64 32, ptr %11) #5
  call void @llvm.lifetime.end.p0(i64 4, ptr %9) #5
  call void @llvm.lifetime.end.p0(i64 4, ptr %8) #5
  br label %117

110:                                              ; preds = %38, %33, %32
  %111 = load float, ptr %9, align 4, !tbaa !44
  %112 = load i32, ptr %5, align 4, !tbaa !57
  %113 = sitofp i32 %112 to float
  %114 = fdiv float %111, %113
  store float %114, ptr %4, align 4
  store i32 1, ptr %10, align 4
  br label %115

115:                                              ; preds = %110, %22
  call void @llvm.lifetime.end.p0(i64 4, ptr %9) #5
  call void @llvm.lifetime.end.p0(i64 4, ptr %8) #5
  %116 = load float, ptr %4, align 4
  ret float %116

117:                                              ; preds = %109
  %118 = load ptr, ptr %13, align 8
  %119 = load i32, ptr %14, align 4
  %120 = insertvalue { ptr, i32 } poison, ptr %118, 0
  %121 = insertvalue { ptr, i32 } %120, i32 %119, 1
  resume { ptr, i32 } %121
}