; Function Attrs: mustprogress uwtable
define internal fastcc noundef float @_ZL12surface_fraciff(i32 noundef %0, float noundef %1, float noundef %2) unnamed_addr #1 personality ptr @__gxx_personality_v0 {
  %4 = alloca %"class.std::__cxx11::basic_string", align 8
  %5 = alloca %"class.std::allocator", align 1
  %6 = alloca %"class.std::filesystem::__cxx11::path", align 8
  %7 = fpext float %2 to double
  %8 = fpext float %1 to double
  %9 = fmul double %8, 5.000000e-01
  %10 = fcmp ogt double %9, %7
  br i1 %10, label %55, label %11

11:                                               ; preds = %3
  %12 = fdiv double %9, %7
  %13 = fptrunc double %12 to float
  switch i32 %0, label %36 [
    i32 1, label %52
    i32 2, label %14
    i32 4, label %16
  ]

14:                                               ; preds = %11
  %15 = fadd float %13, 1.000000e+00
  br label %52

16:                                               ; preds = %11
  %17 = fpext float %13 to double
  %18 = fmul double %17, 0x3FFBB67AE8584CAA
  %19 = fmul double %18, %17
  %20 = fmul double %17, 0x3FD1C71C71C71C72
  %21 = tail call double @llvm.fmuladd.f64(double %20, double %17, double 1.000000e+00)
  %22 = fmul double %17, 0x3FC3E93E93E93E94
  %23 = fmul double %22, %17
  %24 = fmul double %23, %17
  %25 = tail call double @llvm.fmuladd.f64(double %24, double %17, double %21)
  %26 = fmul double %17, 0x3FBC1B1706C5C1B1
  %27 = fmul double %26, %17
  %28 = fmul double %27, %17
  %29 = fmul double %28, %17
  %30 = fmul double %29, %17
  %31 = tail call double @llvm.fmuladd.f64(double %30, double %17, double %25)
  %32 = fmul double %19, %31
  %33 = tail call double @llvm.fmuladd.f64(double %17, double 0x4016ED771E041505, double %32)
  %34 = tail call double @llvm.fmuladd.f64(double %33, double 0x3FD45F306DC9C883, double 1.000000e+00)
  %35 = fptrunc double %34 to float
  br label %52

36:                                               ; preds = %11
  call void @llvm.lifetime.start.p0(i64 32, ptr nonnull %4) #27
  call void @llvm.lifetime.start.p0(i64 1, ptr nonnull %5) #27
  call void @_ZNSt7__cxx1112basic_stringIcSt11char_traitsIcESaIcEEC2IS3_EEPKcRKS3_(ptr noundef nonnull align 8 dereferenceable(32) %4, ptr noundef nonnull @.str.51, ptr noundef nonnull align 1 dereferenceable(1) %5)
  call void @llvm.lifetime.start.p0(i64 40, ptr nonnull %6) #27
  invoke void @_ZNSt10filesystem7__cxx114pathC2IA130_cS1_EERKT_NS1_6formatE(ptr noundef nonnull align 8 dereferenceable(40) %6, ptr noundef nonnull align 1 dereferenceable(130) @.str.10, i8 noundef zeroext 2)
          to label %37 unwind label %39

37:                                               ; preds = %36
  invoke void @_Z18gmx_error_functionPKcRKNSt7__cxx1112basic_stringIcSt11char_traitsIcESaIcEEERKNSt10filesystem7__cxx114pathEi(ptr noundef nonnull @.str.16, ptr noundef nonnull align 8 dereferenceable(32) %4, ptr noundef nonnull align 8 dereferenceable(40) %6, i32 noundef 924) #26
          to label %38 unwind label %41

38:                                               ; preds = %37
  unreachable

39:                                               ; preds = %36
  %40 = landingpad { ptr, i32 }
          cleanup
  br label %43

41:                                               ; preds = %37
  %42 = landingpad { ptr, i32 }
          cleanup
  call void @_ZNSt10filesystem7__cxx114pathD2Ev(ptr noundef nonnull align 8 dereferenceable(40) %6) #27
  br label %43

43:                                               ; preds = %41, %39
  %.pn = phi { ptr, i32 } [ %42, %41 ], [ %40, %39 ]
  call void @llvm.lifetime.end.p0(i64 40, ptr nonnull %6) #27
  %44 = load ptr, ptr %4, align 8, !tbaa !12
  %45 = getelementptr inbounds nuw i8, ptr %4, i64 16
  %46 = icmp eq ptr %44, %45
  br i1 %46, label %_ZNKSt7__cxx1112basic_stringIcSt11char_traitsIcESaIcEE11_M_is_localEv.exit.thread.i.i, label %_ZNKSt7__cxx1112basic_stringIcSt11char_traitsIcESaIcEE11_M_is_localEv.exit.i.i

_ZNKSt7__cxx1112basic_stringIcSt11char_traitsIcESaIcEE11_M_is_localEv.exit.thread.i.i: ; preds = %43
  %47 = getelementptr inbounds nuw i8, ptr %4, i64 8
  %48 = load i64, ptr %47, align 8, !tbaa !15
  %49 = icmp ult i64 %48, 16
  call void @llvm.assume(i1 %49)
  br label %_ZNSt7__cxx1112basic_stringIcSt11char_traitsIcESaIcEED2Ev.exit

_ZNKSt7__cxx1112basic_stringIcSt11char_traitsIcESaIcEE11_M_is_localEv.exit.i.i: ; preds = %43
  %50 = load i64, ptr %45, align 8, !tbaa !14
  %51 = add i64 %50, 1
  call void @_ZdlPvm(ptr noundef %44, i64 noundef %51) #28
  br label %_ZNSt7__cxx1112basic_stringIcSt11char_traitsIcESaIcEED2Ev.exit

_ZNSt7__cxx1112basic_stringIcSt11char_traitsIcESaIcEED2Ev.exit: ; preds = %_ZNKSt7__cxx1112basic_stringIcSt11char_traitsIcESaIcEE11_M_is_localEv.exit.i.i, %_ZNKSt7__cxx1112basic_stringIcSt11char_traitsIcESaIcEE11_M_is_localEv.exit.thread.i.i
  call void @llvm.lifetime.end.p0(i64 1, ptr nonnull %5) #27
  call void @llvm.lifetime.end.p0(i64 32, ptr nonnull %4) #27
  resume { ptr, i32 } %.pn

52:                                               ; preds = %11, %16, %14
  %.027 = phi float [ %35, %16 ], [ %15, %14 ], [ 1.000000e+00, %11 ]
  %53 = uitofp nneg i32 %0 to float
  %54 = fdiv float %.027, %53
  br label %55

55:                                               ; preds = %3, %52
  %.028 = phi float [ %54, %52 ], [ 1.000000e+00, %3 ]
  ret float %.028
}